; Function Attrs: mustprogress uwtable
define hidden void @_ZN10num_occursclEjPKP4expr(ptr noundef nonnull align 8 dereferenceable(40) %0, i32 noundef %1, ptr noundef readonly captures(none) %2) local_unnamed_addr #3 align 2 personality ptr @__gxx_personality_v0 {
  %4 = alloca %class.ast_fast_mark, align 8
  call void @llvm.lifetime.start.p0(i64 144, ptr nonnull %4) #10
  %5 = getelementptr inbounds nuw i8, ptr %4, i64 16
  store ptr %5, ptr %4, align 8, !tbaa !31
  %6 = getelementptr inbounds nuw i8, ptr %4, i64 8
  store i32 0, ptr %6, align 8, !tbaa !27
  %7 = getelementptr inbounds nuw i8, ptr %4, i64 12
  store i32 16, ptr %7, align 4, !tbaa !30
  %.not = icmp eq i32 %1, 0
  br i1 %.not, label %_ZN13ast_fast_markILj1EED2Ev.exit, label %.lr.ph.preheader

.lr.ph.preheader:                                 ; preds = %3
  %wide.trip.count = zext i32 %1 to i64
  br label %.lr.ph

._crit_edge:                                      ; preds = %23
  %.pre = load ptr, ptr %4, align 8, !tbaa !31
  %.pre9 = load i32, ptr %6, align 8, !tbaa !27
  %8 = zext i32 %.pre9 to i64
  %9 = getelementptr inbounds nuw ptr, ptr %.pre, i64 %8
  %.not8.i.i = icmp eq i32 %.pre9, 0
  br i1 %.not8.i.i, label %.loopexit.i, label %.lr.ph.i.i

.lr.ph.i.i:                                       ; preds = %._crit_edge, %.lr.ph.i.i
  %.09.i.i = phi ptr [ %14, %.lr.ph.i.i ], [ %.pre, %._crit_edge ]
  %10 = load ptr, ptr %.09.i.i, align 8, !tbaa !32
  %11 = getelementptr inbounds nuw i8, ptr %10, i64 4
  %12 = load i32, ptr %11, align 4
  %13 = and i32 %12, -65537
  store i32 %13, ptr %11, align 4
  %14 = getelementptr inbounds nuw i8, ptr %.09.i.i, i64 8
  %.not.i.i = icmp eq ptr %14, %9
  br i1 %.not.i.i, label %.loopexit.loopexit.i, label %.lr.ph.i.i

.loopexit.loopexit.i:                             ; preds = %.lr.ph.i.i
  %.pre.i = load ptr, ptr %4, align 8, !tbaa !31
  br label %.loopexit.i

.loopexit.i:                                      ; preds = %.loopexit.loopexit.i, %._crit_edge
  %15 = phi ptr [ %.pre.i, %.loopexit.loopexit.i ], [ %.pre, %._crit_edge ]
  store i32 0, ptr %6, align 8, !tbaa !27
  %.not.i.i.i.i = icmp eq ptr %15, %5
  %16 = icmp eq ptr %15, null
  %or.cond.i.i.i.i = or i1 %.not.i.i.i.i, %16
  br i1 %or.cond.i.i.i.i, label %_ZN13ast_fast_markILj1EED2Ev.exit, label %17

17:                                               ; preds = %.loopexit.i
  invoke void @_ZN6memory10deallocateEPv(ptr noundef nonnull %15)
          to label %_ZN13ast_fast_markILj1EED2Ev.exit unwind label %18

18:                                               ; preds = %17
  %19 = landingpad { ptr, i32 }
          catch ptr null
  %20 = extractvalue { ptr, i32 } %19, 0
  call void @__clang_call_terminate(ptr %20) #11
  unreachable

_ZN13ast_fast_markILj1EED2Ev.exit:                ; preds = %3, %.loopexit.i, %17
  call void @llvm.lifetime.end.p0(i64 144, ptr nonnull %4) #10
  ret void

.lr.ph:                                           ; preds = %.lr.ph.preheader, %23
  %indvars.iv = phi i64 [ 0, %.lr.ph.preheader ], [ %indvars.iv.next, %23 ]
  %21 = getelementptr inbounds nuw ptr, ptr %2, i64 %indvars.iv
  %22 = load ptr, ptr %21, align 8, !tbaa !24
  invoke void @_ZN10num_occurs7processEP4exprR13ast_fast_markILj1EE(ptr noundef nonnull align 8 dereferenceable(40) %0, ptr noundef %22, ptr noundef nonnull align 8 dereferenceable(144) %4)
          to label %23 unwind label %24

23:                                               ; preds = %.lr.ph
  %indvars.iv.next = add nuw nsw i64 %indvars.iv, 1
  %exitcond.not = icmp eq i64 %indvars.iv.next, %wide.trip.count
  br i1 %exitcond.not, label %._crit_edge, label %.lr.ph, !llvm.loop !68

24:                                               ; preds = %.lr.ph
  %25 = landingpad { ptr, i32 }
          cleanup
  call void @_ZN13ast_fast_markILj1EED2Ev(ptr noundef nonnull align 8 dereferenceable(144) %4) #10
  call void @llvm.lifetime.end.p0(i64 144, ptr nonnull %4) #10
  resume { ptr, i32 } %25
}